; ModuleID = '57/603.c'
source_filename = "57/603.c"
target datalayout = "e-m:e-p270:32:32-p271:32:32-p272:64:64-i64:64-f80:128-n8:16:32:64-S128"
target triple = "x86_64-pc-linux-gnu"

@.str = private unnamed_addr constant [3 x i8] c"%d\00", align 1
@.str.1 = private unnamed_addr constant [3 x i8] c"%s\00", align 1
@.str.2 = private unnamed_addr constant [3 x i8] c"%c\00", align 1
@.str.3 = private unnamed_addr constant [4 x i8] c"%c\0A\00", align 1

; Function Attrs: noinline nounwind uwtable
define dso_local i32 @main() #0 {
  %1 = alloca i32, align 4
  %2 = alloca i32, align 4
  %3 = alloca i32, align 4
  %4 = alloca i32, align 4
  %5 = alloca i32, align 4
  %6 = alloca i32, align 4
  %7 = alloca [35 x i8], align 16
  store i32 0, i32* %1, align 4
  %8 = call i32 (i8*, ...) @__isoc99_scanf(i8* getelementptr inbounds ([3 x i8], [3 x i8]* @.str, i64 0, i64 0), i32* %3)
  store i32 0, i32* %2, align 4
  br label %9

9:                                                ; preds = %146, %0
  %10 = load i32, i32* %2, align 4
  %11 = load i32, i32* %3, align 4
  %12 = icmp slt i32 %10, %11
  br i1 %12, label %13, label %149

13:                                               ; preds = %9
  %14 = getelementptr inbounds [35 x i8], [35 x i8]* %7, i64 0, i64 0
  %15 = call i32 (i8*, ...) @__isoc99_scanf(i8* getelementptr inbounds ([3 x i8], [3 x i8]* @.str.1, i64 0, i64 0), i8* %14)
  %16 = getelementptr inbounds [35 x i8], [35 x i8]* %7, i64 0, i64 0
  %17 = call i64 @strlen(i8* %16) #3
  %18 = trunc i64 %17 to i32
  store i32 %18, i32* %5, align 4
  %19 = load i32, i32* %5, align 4
  %20 = sub nsw i32 %19, 1
  %21 = sext i32 %20 to i64
  %22 = getelementptr inbounds [35 x i8], [35 x i8]* %7, i64 0, i64 %21
  %23 = load i8, i8* %22, align 1
  %24 = sext i8 %23 to i32
  %25 = icmp eq i32 %24, 121
  br i1 %25, label %26, label %34

26:                                               ; preds = %13
  %27 = load i32, i32* %5, align 4
  %28 = sub nsw i32 %27, 2
  %29 = sext i32 %28 to i64
  %30 = getelementptr inbounds [35 x i8], [35 x i8]* %7, i64 0, i64 %29
  %31 = load i8, i8* %30, align 1
  %32 = sext i8 %31 to i32
  %33 = icmp eq i32 %32, 108
  br i1 %33, label %50, label %34

34:                                               ; preds = %26, %13
  %35 = load i32, i32* %5, align 4
  %36 = sub nsw i32 %35, 1
  %37 = sext i32 %36 to i64
  %38 = getelementptr inbounds [35 x i8], [35 x i8]* %7, i64 0, i64 %37
  %39 = load i8, i8* %38, align 1
  %40 = sext i8 %39 to i32
  %41 = icmp eq i32 %40, 114
  br i1 %41, label %42, label %85

42:                                               ; preds = %34
  %43 = load i32, i32* %5, align 4
  %44 = sub nsw i32 %43, 2
  %45 = sext i32 %44 to i64
  %46 = getelementptr inbounds [35 x i8], [35 x i8]* %7, i64 0, i64 %45
  %47 = load i8, i8* %46, align 1
  %48 = sext i8 %47 to i32
  %49 = icmp eq i32 %48, 101
  br i1 %49, label %50, label %85

50:                                               ; preds = %42, %26
  store i32 0, i32* %6, align 4
  br label %51

51:                                               ; preds = %81, %50
  %52 = load i32, i32* %6, align 4
  %53 = load i32, i32* %5, align 4
  %54 = sub nsw i32 %53, 3
  %55 = icmp sle i32 %52, %54
  br i1 %55, label %56, label %84

56:                                               ; preds = %51
  %57 = load i32, i32* %6, align 4
  %58 = load i32, i32* %5, align 4
  %59 = sub nsw i32 %58, 3
  %60 = icmp slt i32 %57, %59
  br i1 %60, label %61, label %68

61:                                               ; preds = %56
  %62 = load i32, i32* %6, align 4
  %63 = sext i32 %62 to i64
  %64 = getelementptr inbounds [35 x i8], [35 x i8]* %7, i64 0, i64 %63
  %65 = load i8, i8* %64, align 1
  %66 = sext i8 %65 to i32
  %67 = call i32 (i8*, ...) @printf(i8* getelementptr inbounds ([3 x i8], [3 x i8]* @.str.2, i64 0, i64 0), i32 %66)
  br label %68

68:                                               ; preds = %61, %56
  %69 = load i32, i32* %6, align 4
  %70 = load i32, i32* %5, align 4
  %71 = sub nsw i32 %70, 3
  %72 = icmp eq i32 %69, %71
  br i1 %72, label %73, label %80

73:                                               ; preds = %68
  %74 = load i32, i32* %6, align 4
  %75 = sext i32 %74 to i64
  %76 = getelementptr inbounds [35 x i8], [35 x i8]* %7, i64 0, i64 %75
  %77 = load i8, i8* %76, align 1
  %78 = sext i8 %77 to i32
  %79 = call i32 (i8*, ...) @printf(i8* getelementptr inbounds ([4 x i8], [4 x i8]* @.str.3, i64 0, i64 0), i32 %78)
  br label %80

80:                                               ; preds = %73, %68
  br label %81

81:                                               ; preds = %80
  %82 = load i32, i32* %6, align 4
  %83 = add nsw i32 %82, 1
  store i32 %83, i32* %6, align 4
  br label %51

84:                                               ; preds = %51
  br label %145

85:                                               ; preds = %42, %34
  %86 = load i32, i32* %5, align 4
  %87 = sub nsw i32 %86, 1
  %88 = sext i32 %87 to i64
  %89 = getelementptr inbounds [35 x i8], [35 x i8]* %7, i64 0, i64 %88
  %90 = load i8, i8* %89, align 1
  %91 = sext i8 %90 to i32
  %92 = icmp eq i32 %91, 103
  br i1 %92, label %93, label %144

93:                                               ; preds = %85
  %94 = load i32, i32* %5, align 4
  %95 = sub nsw i32 %94, 2
  %96 = sext i32 %95 to i64
  %97 = getelementptr inbounds [35 x i8], [35 x i8]* %7, i64 0, i64 %96
  %98 = load i8, i8* %97, align 1
  %99 = sext i8 %98 to i32
  %100 = icmp eq i32 %99, 110
  br i1 %100, label %101, label %144

101:                                              ; preds = %93
  %102 = load i32, i32* %5, align 4
  %103 = sub nsw i32 %102, 3
  %104 = sext i32 %103 to i64
  %105 = getelementptr inbounds [35 x i8], [35 x i8]* %7, i64 0, i64 %104
  %106 = load i8, i8* %105, align 1
  %107 = sext i8 %106 to i32
  %108 = icmp eq i32 %107, 105
  br i1 %108, label %109, label %144

109:                                              ; preds = %101
  store i32 0, i32* %6, align 4
  br label %110

110:                                              ; preds = %140, %109
  %111 = load i32, i32* %6, align 4
  %112 = load i32, i32* %5, align 4
  %113 = sub nsw i32 %112, 3
  %114 = icmp slt i32 %111, %113
  br i1 %114, label %115, label %143

115:                                              ; preds = %110
  %116 = load i32, i32* %6, align 4
  %117 = load i32, i32* %5, align 4
  %118 = sub nsw i32 %117, 4
  %119 = icmp slt i32 %116, %118
  br i1 %119, label %120, label %127

120:                                              ; preds = %115
  %121 = load i32, i32* %6, align 4
  %122 = sext i32 %121 to i64
  %123 = getelementptr inbounds [35 x i8], [35 x i8]* %7, i64 0, i64 %122
  %124 = load i8, i8* %123, align 1
  %125 = sext i8 %124 to i32
  %126 = call i32 (i8*, ...) @printf(i8* getelementptr inbounds ([3 x i8], [3 x i8]* @.str.2, i64 0, i64 0), i32 %125)
  br label %127

127:                                              ; preds = %120, %115
  %128 = load i32, i32* %6, align 4
  %129 = load i32, i32* %5, align 4
  %130 = sub nsw i32 %129, 4
  %131 = icmp eq i32 %128, %130
  br i1 %131, label %132, label %139

132:                                              ; preds = %127
  %133 = load i32, i32* %6, align 4
  %134 = sext i32 %133 to i64
  %135 = getelementptr inbounds [35 x i8], [35 x i8]* %7, i64 0, i64 %134
  %136 = load i8, i8* %135, align 1
  %137 = sext i8 %136 to i32
  %138 = call i32 (i8*, ...) @printf(i8* getelementptr inbounds ([4 x i8], [4 x i8]* @.str.3, i64 0, i64 0), i32 %137)
  br label %139

139:                                              ; preds = %132, %127
  br label %140

140:                                              ; preds = %139
  %141 = load i32, i32* %6, align 4
  %142 = add nsw i32 %141, 1
  store i32 %142, i32* %6, align 4
  br label %110

143:                                              ; preds = %110
  br label %144

144:                                              ; preds = %143, %101, %93, %85
  br label %145

145:                                              ; preds = %144, %84
  br label %146

146:                                              ; preds = %145
  %147 = load i32, i32* %2, align 4
  %148 = add nsw i32 %147, 1
  store i32 %148, i32* %2, align 4
  br label %9

149:                                              ; preds = %9
  ret i32 0
}

declare dso_local i32 @__isoc99_scanf(i8*, ...) #1

; Function Attrs: nounwind readonly
declare dso_local i64 @strlen(i8*) #2

declare dso_local i32 @printf(i8*, ...) #1


!llvm.module.flags = !{!0}
!llvm.ident = !{!1}

!0 = !{i32 1, !"wchar_size", i32 4}
!1 = !{!"clang version 10.0.0-4ubuntu1 "}
